; Function Attrs: mustprogress uwtable
define void @_ZNK6casadi6MXNode10primitivesERN9__gnu_cxx17__normal_iteratorIPNS_2MXESt6vectorIS3_SaIS3_EEEE(ptr noundef nonnull align 8 dereferenceable(64) %0, ptr nocapture noundef nonnull align 8 dereferenceable(8) %1) unnamed_addr #3 align 2 personality ptr @__gxx_personality_v0 {
  %3 = alloca %"class.casadi::MX", align 8
  call void @_ZNK6casadi20SharedObjectInternal16shared_from_thisINS_2MXEEEKT_v(ptr dead_on_unwind nonnull writable sret(%"class.casadi::MX") align 8 %3, ptr noundef nonnull align 8 dereferenceable(24) %0)
  %4 = load ptr, ptr %1, align 8
  %5 = getelementptr inbounds i8, ptr %4, i64 8
  store ptr %5, ptr %1, align 8
  %6 = invoke noundef nonnull align 8 dereferenceable(8) ptr @_ZN6casadi12SharedObjectaSERKS0_(ptr noundef nonnull align 8 dereferenceable(8) %4, ptr noundef nonnull align 8 dereferenceable(8) %3)
          to label %_ZN6casadi2MXaSERKS0_.exit unwind label %7

_ZN6casadi2MXaSERKS0_.exit:                       ; preds = %2
  call void @_ZN6casadi2MXD1Ev(ptr noundef nonnull align 8 dereferenceable(8) %3) #31
  ret void

7:                                                ; preds = %2
  %8 = landingpad { ptr, i32 }
          cleanup
  call void @_ZN6casadi2MXD1Ev(ptr noundef nonnull align 8 dereferenceable(8) %3) #31
  resume { ptr, i32 } %8
}